target datalayout = "e-m:e-p270:32:32-p271:32:32-p272:64:64-i64:64-i128:128-f80:128-n8:16:32:64-S128"
target triple = "x86_64-pc-linux-gnu"

%struct.strbuf = type { i64, i64, ptr }
%struct.date_mode = type { i32, i32, ptr }
%struct.string_list = type { ptr, i64, i64, i8, ptr }
%struct.shortlog = type { %struct.string_list, i32, i32, i32, i32, i32, i32, i32, i32, %struct.date_mode, i32, %struct.string_list, %struct.string_list, i32, %struct.string_list, ptr }
%struct.string_list_item = type { ptr, ptr }

@strbuf_slopbuf = external global [0 x i8], align 1
@__const.shortlog_output.sb = private unnamed_addr constant %struct.strbuf { i64 0, i64 0, ptr @strbuf_slopbuf }, align 8
@.str.23 = private unnamed_addr constant [8 x i8] c"%6d\09%s\0A\00", align 1
@.str.24 = private unnamed_addr constant [11 x i8] c"%s (%lu):\0A\00", align 1
@.str.25 = private unnamed_addr constant [10 x i8] c"      %s\0A\00", align 1
@.str.47 = private unnamed_addr constant [11 x i8] c"./strbuf.h\00", align 1
@.str.48 = private unnamed_addr constant [30 x i8] c"strbuf_setlen() beyond buffer\00", align 1

; Function Attrs: inlinehint nounwind uwtable
define internal i64 @strbuf_avail(ptr noundef %0) #5 {
  %2 = alloca ptr, align 8
  store ptr %0, ptr %2, align 8, !tbaa !164
  %3 = load ptr, ptr %2, align 8, !tbaa !164
  %4 = getelementptr inbounds nuw %struct.strbuf, ptr %3, i32 0, i32 0
  %5 = load i64, ptr %4, align 8, !tbaa !166
  %6 = icmp ne i64 %5, 0
  br i1 %6, label %7, label %16

7:                                                ; preds = %1
  %8 = load ptr, ptr %2, align 8, !tbaa !164
  %9 = getelementptr inbounds nuw %struct.strbuf, ptr %8, i32 0, i32 0
  %10 = load i64, ptr %9, align 8, !tbaa !166
  %11 = load ptr, ptr %2, align 8, !tbaa !164
  %12 = getelementptr inbounds nuw %struct.strbuf, ptr %11, i32 0, i32 1
  %13 = load i64, ptr %12, align 8, !tbaa !36
  %14 = sub i64 %10, %13
  %15 = sub i64 %14, 1
  br label %17

16:                                               ; preds = %1
  br label %17

17:                                               ; preds = %16, %7
  %18 = phi i64 [ %15, %7 ], [ 0, %16 ]
  ret i64 %18
}

; Function Attrs: inlinehint nounwind uwtable
define internal void @strbuf_addch(ptr noundef %0, i32 noundef %1) #5 {
  %3 = alloca ptr, align 8
  %4 = alloca i32, align 4
  store ptr %0, ptr %3, align 8, !tbaa !164
  store i32 %1, ptr %4, align 4, !tbaa !29
  %5 = load ptr, ptr %3, align 8, !tbaa !164
  %6 = call i64 @strbuf_avail(ptr noundef %5)
  %7 = icmp ne i64 %6, 0
  br i1 %7, label %10, label %8

8:                                                ; preds = %2
  %9 = load ptr, ptr %3, align 8, !tbaa !164
  call void @strbuf_grow(ptr noundef %9, i64 noundef 1)
  br label %10

10:                                               ; preds = %8, %2
  %11 = load i32, ptr %4, align 4, !tbaa !29
  %12 = trunc i32 %11 to i8
  %13 = load ptr, ptr %3, align 8, !tbaa !164
  %14 = getelementptr inbounds nuw %struct.strbuf, ptr %13, i32 0, i32 2
  %15 = load ptr, ptr %14, align 8, !tbaa !38
  %16 = load ptr, ptr %3, align 8, !tbaa !164
  %17 = getelementptr inbounds nuw %struct.strbuf, ptr %16, i32 0, i32 1
  %18 = load i64, ptr %17, align 8, !tbaa !36
  %19 = add i64 %18, 1
  store i64 %19, ptr %17, align 8, !tbaa !36
  %20 = getelementptr inbounds nuw i8, ptr %15, i64 %18
  store i8 %12, ptr %20, align 1, !tbaa !148
  %21 = load ptr, ptr %3, align 8, !tbaa !164
  %22 = getelementptr inbounds nuw %struct.strbuf, ptr %21, i32 0, i32 2
  %23 = load ptr, ptr %22, align 8, !tbaa !38
  %24 = load ptr, ptr %3, align 8, !tbaa !164
  %25 = getelementptr inbounds nuw %struct.strbuf, ptr %24, i32 0, i32 1
  %26 = load i64, ptr %25, align 8, !tbaa !36
  %27 = getelementptr inbounds nuw i8, ptr %23, i64 %26
  store i8 0, ptr %27, align 1, !tbaa !148
  ret void
}

; Function Attrs: nounwind uwtable
define internal void @add_wrapped_shortlog_msg(ptr noundef %0, ptr noundef %1, ptr noundef %2) #0 {
  %4 = alloca ptr, align 8
  %5 = alloca ptr, align 8
  %6 = alloca ptr, align 8
  store ptr %0, ptr %4, align 8, !tbaa !164
  store ptr %1, ptr %5, align 8, !tbaa !30
  store ptr %2, ptr %6, align 8, !tbaa !4
  %7 = load ptr, ptr %4, align 8, !tbaa !164
  %8 = load ptr, ptr %5, align 8, !tbaa !30
  %9 = load ptr, ptr %6, align 8, !tbaa !4
  %10 = getelementptr inbounds nuw %struct.shortlog, ptr %9, i32 0, i32 5
  %11 = load i32, ptr %10, align 8, !tbaa !58
  %12 = load ptr, ptr %6, align 8, !tbaa !4
  %13 = getelementptr inbounds nuw %struct.shortlog, ptr %12, i32 0, i32 6
  %14 = load i32, ptr %13, align 4, !tbaa !59
  %15 = load ptr, ptr %6, align 8, !tbaa !4
  %16 = getelementptr inbounds nuw %struct.shortlog, ptr %15, i32 0, i32 4
  %17 = load i32, ptr %16, align 4, !tbaa !57
  call void @strbuf_add_wrapped_text(ptr noundef %7, ptr noundef %8, i32 noundef %11, i32 noundef %14, i32 noundef %17)
  %18 = load ptr, ptr %4, align 8, !tbaa !164
  call void @strbuf_addch(ptr noundef %18, i32 noundef 10)
  ret void
}

; Function Attrs: inlinehint nounwind uwtable
define internal void @strbuf_setlen(ptr noundef %0, i64 noundef %1) #5 {
  %3 = alloca ptr, align 8
  %4 = alloca i64, align 8
  store ptr %0, ptr %3, align 8, !tbaa !164
  store i64 %1, ptr %4, align 8, !tbaa !157
  %5 = load i64, ptr %4, align 8, !tbaa !157
  %6 = load ptr, ptr %3, align 8, !tbaa !164
  %7 = getelementptr inbounds nuw %struct.strbuf, ptr %6, i32 0, i32 0
  %8 = load i64, ptr %7, align 8, !tbaa !166
  %9 = icmp ne i64 %8, 0
  br i1 %9, label %10, label %15

10:                                               ; preds = %2
  %11 = load ptr, ptr %3, align 8, !tbaa !164
  %12 = getelementptr inbounds nuw %struct.strbuf, ptr %11, i32 0, i32 0
  %13 = load i64, ptr %12, align 8, !tbaa !166
  %14 = sub i64 %13, 1
  br label %16

15:                                               ; preds = %2
  br label %16

16:                                               ; preds = %15, %10
  %17 = phi i64 [ %14, %10 ], [ 0, %15 ]
  %18 = icmp ugt i64 %5, %17
  br i1 %18, label %19, label %20

19:                                               ; preds = %16
  call void (ptr, i32, ptr, ...) @BUG_fl(ptr noundef @.str.47, i32 noundef 167, ptr noundef @.str.48) #13
  unreachable

20:                                               ; preds = %16
  %21 = load i64, ptr %4, align 8, !tbaa !157
  %22 = load ptr, ptr %3, align 8, !tbaa !164
  %23 = getelementptr inbounds nuw %struct.strbuf, ptr %22, i32 0, i32 1
  store i64 %21, ptr %23, align 8, !tbaa !36
  %24 = load ptr, ptr %3, align 8, !tbaa !164
  %25 = getelementptr inbounds nuw %struct.strbuf, ptr %24, i32 0, i32 2
  %26 = load ptr, ptr %25, align 8, !tbaa !38
  %27 = icmp ne ptr %26, @strbuf_slopbuf
  br i1 %27, label %28, label %34

28:                                               ; preds = %20
  %29 = load ptr, ptr %3, align 8, !tbaa !164
  %30 = getelementptr inbounds nuw %struct.strbuf, ptr %29, i32 0, i32 2
  %31 = load ptr, ptr %30, align 8, !tbaa !38
  %32 = load i64, ptr %4, align 8, !tbaa !157
  %33 = getelementptr inbounds nuw i8, ptr %31, i64 %32
  store i8 0, ptr %33, align 1, !tbaa !148
  br label %35

34:                                               ; preds = %20
  br label %35

35:                                               ; preds = %34, %28
  ret void
}

; Function Attrs: nounwind uwtable
define dso_local void @shortlog_output(ptr noundef %0) #0 {
  %2 = alloca ptr, align 8
  %3 = alloca i64, align 8
  %4 = alloca i64, align 8
  %5 = alloca %struct.strbuf, align 8
  %6 = alloca ptr, align 8
  %7 = alloca ptr, align 8
  %8 = alloca ptr, align 8
  store ptr %0, ptr %2, align 8, !tbaa !4
  call void @llvm.lifetime.start.p0(i64 8, ptr %3) #10
  call void @llvm.lifetime.start.p0(i64 8, ptr %4) #10
  call void @llvm.lifetime.start.p0(i64 24, ptr %5) #10
  call void @llvm.memcpy.p0.p0.i64(ptr align 8 %5, ptr align 8 @__const.shortlog_output.sb, i64 24, i1 false)
  %9 = load ptr, ptr %2, align 8, !tbaa !4
  %10 = getelementptr inbounds nuw %struct.shortlog, ptr %9, i32 0, i32 3
  %11 = load i32, ptr %10, align 8, !tbaa !154
  %12 = icmp ne i32 %11, 0
  br i1 %12, label %13, label %27

13:                                               ; preds = %1
  %14 = load ptr, ptr %2, align 8, !tbaa !4
  %15 = getelementptr inbounds nuw %struct.shortlog, ptr %14, i32 0, i32 0
  %16 = getelementptr inbounds nuw %struct.string_list, ptr %15, i32 0, i32 0
  %17 = load ptr, ptr %16, align 8, !tbaa !155
  %18 = load ptr, ptr %2, align 8, !tbaa !4
  %19 = getelementptr inbounds nuw %struct.shortlog, ptr %18, i32 0, i32 0
  %20 = getelementptr inbounds nuw %struct.string_list, ptr %19, i32 0, i32 1
  %21 = load i64, ptr %20, align 8, !tbaa !156
  %22 = load ptr, ptr %2, align 8, !tbaa !4
  %23 = getelementptr inbounds nuw %struct.shortlog, ptr %22, i32 0, i32 1
  %24 = load i32, ptr %23, align 8, !tbaa !32
  %25 = icmp ne i32 %24, 0
  %26 = select i1 %25, ptr @compare_by_counter, ptr @compare_by_list
  call void @git_stable_qsort(ptr noundef %17, i64 noundef %21, i64 noundef 16, ptr noundef %26)
  br label %27

27:                                               ; preds = %13, %1
  store i64 0, ptr %3, align 8, !tbaa !157
  br label %28

28:                                               ; preds = %133, %27
  %29 = load i64, ptr %3, align 8, !tbaa !157
  %30 = load ptr, ptr %2, align 8, !tbaa !4
  %31 = getelementptr inbounds nuw %struct.shortlog, ptr %30, i32 0, i32 0
  %32 = getelementptr inbounds nuw %struct.string_list, ptr %31, i32 0, i32 1
  %33 = load i64, ptr %32, align 8, !tbaa !156
  %34 = icmp ult i64 %29, %33
  br i1 %34, label %35, label %136

35:                                               ; preds = %28
  call void @llvm.lifetime.start.p0(i64 8, ptr %6) #10
  %36 = load ptr, ptr %2, align 8, !tbaa !4
  %37 = getelementptr inbounds nuw %struct.shortlog, ptr %36, i32 0, i32 0
  %38 = getelementptr inbounds nuw %struct.string_list, ptr %37, i32 0, i32 0
  %39 = load ptr, ptr %38, align 8, !tbaa !155
  %40 = load i64, ptr %3, align 8, !tbaa !157
  %41 = getelementptr inbounds nuw %struct.string_list_item, ptr %39, i64 %40
  store ptr %41, ptr %6, align 8, !tbaa !52
  %42 = load ptr, ptr %2, align 8, !tbaa !4
  %43 = getelementptr inbounds nuw %struct.shortlog, ptr %42, i32 0, i32 1
  %44 = load i32, ptr %43, align 8, !tbaa !32
  %45 = icmp ne i32 %44, 0
  br i1 %45, label %46, label %59

46:                                               ; preds = %35
  %47 = load ptr, ptr %2, align 8, !tbaa !4
  %48 = getelementptr inbounds nuw %struct.shortlog, ptr %47, i32 0, i32 15
  %49 = load ptr, ptr %48, align 8, !tbaa !141
  %50 = load ptr, ptr %6, align 8, !tbaa !52
  %51 = getelementptr inbounds nuw %struct.string_list_item, ptr %50, i32 0, i32 1
  %52 = load ptr, ptr %51, align 8, !tbaa !158
  %53 = ptrtoint ptr %52 to i64
  %54 = trunc i64 %53 to i32
  %55 = load ptr, ptr %6, align 8, !tbaa !52
  %56 = getelementptr inbounds nuw %struct.string_list_item, ptr %55, i32 0, i32 0
  %57 = load ptr, ptr %56, align 8, !tbaa !54
  %58 = call i32 (ptr, ptr, ...) @fprintf(ptr noundef %49, ptr noundef @.str.23, i32 noundef %54, ptr noundef %57) #10
  br label %125

59:                                               ; preds = %35
  call void @llvm.lifetime.start.p0(i64 8, ptr %7) #10
  %60 = load ptr, ptr %6, align 8, !tbaa !52
  %61 = getelementptr inbounds nuw %struct.string_list_item, ptr %60, i32 0, i32 1
  %62 = load ptr, ptr %61, align 8, !tbaa !158
  store ptr %62, ptr %7, align 8, !tbaa !159
  %63 = load ptr, ptr %2, align 8, !tbaa !4
  %64 = getelementptr inbounds nuw %struct.shortlog, ptr %63, i32 0, i32 15
  %65 = load ptr, ptr %64, align 8, !tbaa !141
  %66 = load ptr, ptr %6, align 8, !tbaa !52
  %67 = getelementptr inbounds nuw %struct.string_list_item, ptr %66, i32 0, i32 0
  %68 = load ptr, ptr %67, align 8, !tbaa !54
  %69 = load ptr, ptr %7, align 8, !tbaa !159
  %70 = getelementptr inbounds nuw %struct.string_list, ptr %69, i32 0, i32 1
  %71 = load i64, ptr %70, align 8, !tbaa !160
  %72 = call i32 (ptr, ptr, ...) @fprintf(ptr noundef %65, ptr noundef @.str.24, ptr noundef %68, i64 noundef %71) #10
  %73 = load ptr, ptr %7, align 8, !tbaa !159
  %74 = getelementptr inbounds nuw %struct.string_list, ptr %73, i32 0, i32 1
  %75 = load i64, ptr %74, align 8, !tbaa !160
  store i64 %75, ptr %4, align 8, !tbaa !157
  br label %76

76:                                               ; preds = %110, %59
  %77 = load i64, ptr %4, align 8, !tbaa !157
  %78 = icmp uge i64 %77, 1
  br i1 %78, label %79, label %113

79:                                               ; preds = %76
  call void @llvm.lifetime.start.p0(i64 8, ptr %8) #10
  %80 = load ptr, ptr %7, align 8, !tbaa !159
  %81 = getelementptr inbounds nuw %struct.string_list, ptr %80, i32 0, i32 0
  %82 = load ptr, ptr %81, align 8, !tbaa !161
  %83 = load i64, ptr %4, align 8, !tbaa !157
  %84 = sub i64 %83, 1
  %85 = getelementptr inbounds nuw %struct.string_list_item, ptr %82, i64 %84
  %86 = getelementptr inbounds nuw %struct.string_list_item, ptr %85, i32 0, i32 0
  %87 = load ptr, ptr %86, align 8, !tbaa !54
  store ptr %87, ptr %8, align 8, !tbaa !30
  %88 = load ptr, ptr %2, align 8, !tbaa !4
  %89 = getelementptr inbounds nuw %struct.shortlog, ptr %88, i32 0, i32 2
  %90 = load i32, ptr %89, align 4, !tbaa !146
  %91 = icmp ne i32 %90, 0
  br i1 %91, label %92, label %103

92:                                               ; preds = %79
  call void @strbuf_setlen(ptr noundef %5, i64 noundef 0)
  %93 = load ptr, ptr %8, align 8, !tbaa !30
  %94 = load ptr, ptr %2, align 8, !tbaa !4
  call void @add_wrapped_shortlog_msg(ptr noundef %5, ptr noundef %93, ptr noundef %94)
  %95 = getelementptr inbounds nuw %struct.strbuf, ptr %5, i32 0, i32 2
  %96 = load ptr, ptr %95, align 8, !tbaa !38
  %97 = getelementptr inbounds nuw %struct.strbuf, ptr %5, i32 0, i32 1
  %98 = load i64, ptr %97, align 8, !tbaa !36
  %99 = load ptr, ptr %2, align 8, !tbaa !4
  %100 = getelementptr inbounds nuw %struct.shortlog, ptr %99, i32 0, i32 15
  %101 = load ptr, ptr %100, align 8, !tbaa !141
  %102 = call i64 @fwrite(ptr noundef %96, i64 noundef %98, i64 noundef 1, ptr noundef %101)
  br label %109

103:                                              ; preds = %79
  %104 = load ptr, ptr %2, align 8, !tbaa !4
  %105 = getelementptr inbounds nuw %struct.shortlog, ptr %104, i32 0, i32 15
  %106 = load ptr, ptr %105, align 8, !tbaa !141
  %107 = load ptr, ptr %8, align 8, !tbaa !30
  %108 = call i32 (ptr, ptr, ...) @fprintf(ptr noundef %106, ptr noundef @.str.25, ptr noundef %107) #10
  br label %109

109:                                              ; preds = %103, %92
  call void @llvm.lifetime.end.p0(i64 8, ptr %8) #10
  br label %110

110:                                              ; preds = %109
  %111 = load i64, ptr %4, align 8, !tbaa !157
  %112 = add i64 %111, -1
  store i64 %112, ptr %4, align 8, !tbaa !157
  br label %76, !llvm.loop !162

113:                                              ; preds = %76
  %114 = load ptr, ptr %2, align 8, !tbaa !4
  %115 = getelementptr inbounds nuw %struct.shortlog, ptr %114, i32 0, i32 15
  %116 = load ptr, ptr %115, align 8, !tbaa !141
  %117 = call i32 @putc(i32 noundef 10, ptr noundef %116)
  %118 = load ptr, ptr %7, align 8, !tbaa !159
  %119 = getelementptr inbounds nuw %struct.string_list, ptr %118, i32 0, i32 3
  %120 = load i8, ptr %119, align 8
  %121 = and i8 %120, -2
  %122 = or i8 %121, 1
  store i8 %122, ptr %119, align 8
  %123 = load ptr, ptr %7, align 8, !tbaa !159
  call void @string_list_clear(ptr noundef %123, i32 noundef 0)
  %124 = load ptr, ptr %7, align 8, !tbaa !159
  call void @free(ptr noundef %124) #10
  call void @llvm.lifetime.end.p0(i64 8, ptr %7) #10
  br label %125

125:                                              ; preds = %113, %46
  %126 = load ptr, ptr %2, align 8, !tbaa !4
  %127 = getelementptr inbounds nuw %struct.shortlog, ptr %126, i32 0, i32 0
  %128 = getelementptr inbounds nuw %struct.string_list, ptr %127, i32 0, i32 0
  %129 = load ptr, ptr %128, align 8, !tbaa !155
  %130 = load i64, ptr %3, align 8, !tbaa !157
  %131 = getelementptr inbounds nuw %struct.string_list_item, ptr %129, i64 %130
  %132 = getelementptr inbounds nuw %struct.string_list_item, ptr %131, i32 0, i32 1
  store ptr null, ptr %132, align 8, !tbaa !158
  call void @llvm.lifetime.end.p0(i64 8, ptr %6) #10
  br label %133

133:                                              ; preds = %125
  %134 = load i64, ptr %3, align 8, !tbaa !157
  %135 = add i64 %134, 1
  store i64 %135, ptr %3, align 8, !tbaa !157
  br label %28, !llvm.loop !163

136:                                              ; preds = %28
  call void @strbuf_release(ptr noundef %5)
  %137 = load ptr, ptr %2, align 8, !tbaa !4
  %138 = getelementptr inbounds nuw %struct.shortlog, ptr %137, i32 0, i32 0
  %139 = getelementptr inbounds nuw %struct.string_list, ptr %138, i32 0, i32 3
  %140 = load i8, ptr %139, align 8
  %141 = and i8 %140, -2
  %142 = or i8 %141, 1
  store i8 %142, ptr %139, align 8
  %143 = load ptr, ptr %2, align 8, !tbaa !4
  %144 = getelementptr inbounds nuw %struct.shortlog, ptr %143, i32 0, i32 0
  call void @string_list_clear(ptr noundef %144, i32 noundef 1)
  %145 = load ptr, ptr %2, align 8, !tbaa !4
  %146 = getelementptr inbounds nuw %struct.shortlog, ptr %145, i32 0, i32 14
  call void @clear_mailmap(ptr noundef %146)
  %147 = load ptr, ptr %2, align 8, !tbaa !4
  %148 = getelementptr inbounds nuw %struct.shortlog, ptr %147, i32 0, i32 12
  call void @string_list_clear(ptr noundef %148, i32 noundef 0)
  %149 = load ptr, ptr %2, align 8, !tbaa !4
  %150 = getelementptr inbounds nuw %struct.shortlog, ptr %149, i32 0, i32 11
  call void @string_list_clear(ptr noundef %150, i32 noundef 0)
  call void @llvm.lifetime.end.p0(i64 24, ptr %5) #10
  call void @llvm.lifetime.end.p0(i64 8, ptr %4) #10
  call void @llvm.lifetime.end.p0(i64 8, ptr %3) #10
  ret void
}