; Function Attrs: nounwind uwtable
define dso_local void @shortlog_output(ptr noundef %0) local_unnamed_addr #0 {
  %2 = alloca %struct.strbuf, align 8
  call void @llvm.lifetime.start.p0(i64 24, ptr nonnull %2) #17
  call void @llvm.memcpy.p0.p0.i64(ptr noundef nonnull align 8 dereferenceable(24) %2, ptr noundef nonnull align 8 dereferenceable(24) @__const.read_from_stdin.oneline, i64 24, i1 false)
  %3 = getelementptr inbounds nuw i8, ptr %0, i64 48
  %4 = load i32, ptr %3, align 8, !tbaa !137
  %.not = icmp eq i32 %4, 0
  br i1 %.not, label %12, label %5

5:                                                ; preds = %1
  %6 = load ptr, ptr %0, align 8, !tbaa !138
  %7 = getelementptr inbounds nuw i8, ptr %0, i64 8
  %8 = load i64, ptr %7, align 8, !tbaa !139
  %9 = getelementptr inbounds nuw i8, ptr %0, i64 40
  %10 = load i32, ptr %9, align 8, !tbaa !28
  %.not39 = icmp eq i32 %10, 0
  %11 = select i1 %.not39, ptr @compare_by_list, ptr @compare_by_counter
  tail call void @git_stable_qsort(ptr noundef %6, i64 noundef %8, i64 noundef 16, ptr noundef nonnull %11) #17
  br label %12

12:                                               ; preds = %5, %1
  %13 = getelementptr inbounds nuw i8, ptr %0, i64 8
  %14 = load i64, ptr %13, align 8, !tbaa !139
  %.not49 = icmp eq i64 %14, 0
  br i1 %.not49, label %._crit_edge48, label %.lr.ph47

.lr.ph47:                                         ; preds = %12
  %15 = getelementptr inbounds nuw i8, ptr %0, i64 40
  %16 = getelementptr inbounds nuw i8, ptr %0, i64 224
  %17 = getelementptr inbounds nuw i8, ptr %0, i64 44
  %18 = getelementptr inbounds nuw i8, ptr %2, i64 8
  %19 = getelementptr inbounds nuw i8, ptr %2, i64 16
  %20 = getelementptr inbounds nuw i8, ptr %0, i64 56
  %21 = getelementptr inbounds nuw i8, ptr %0, i64 60
  %22 = getelementptr inbounds nuw i8, ptr %0, i64 52
  %.pre = load ptr, ptr %0, align 8, !tbaa !138
  br label %23

23:                                               ; preds = %.lr.ph47, %77
  %24 = phi ptr [ %.pre, %.lr.ph47 ], [ %78, %77 ]
  %.045 = phi i64 [ 0, %.lr.ph47 ], [ %80, %77 ]
  %25 = getelementptr inbounds nuw %struct.string_list_item, ptr %24, i64 %.045
  %26 = load i32, ptr %15, align 8, !tbaa !28
  %.not40 = icmp eq i32 %26, 0
  br i1 %.not40, label %35, label %27

27:                                               ; preds = %23
  %28 = load ptr, ptr %16, align 8, !tbaa !128
  %29 = getelementptr inbounds nuw i8, ptr %25, i64 8
  %30 = load ptr, ptr %29, align 8, !tbaa !140
  %31 = ptrtoint ptr %30 to i64
  %32 = trunc i64 %31 to i32
  %33 = load ptr, ptr %25, align 8, !tbaa !46
  %34 = call i32 (ptr, ptr, ...) @fprintf(ptr noundef %28, ptr noundef nonnull @.str.23, i32 noundef %32, ptr noundef %33) #17
  br label %77

35:                                               ; preds = %23
  %36 = getelementptr inbounds nuw i8, ptr %25, i64 8
  %37 = load ptr, ptr %36, align 8, !tbaa !140
  %38 = load ptr, ptr %16, align 8, !tbaa !128
  %39 = load ptr, ptr %25, align 8, !tbaa !46
  %40 = getelementptr inbounds nuw i8, ptr %37, i64 8
  %41 = load i64, ptr %40, align 8, !tbaa !141
  %42 = call i32 (ptr, ptr, ...) @fprintf(ptr noundef %38, ptr noundef nonnull @.str.24, ptr noundef %39, i64 noundef %41) #17
  %43 = load i64, ptr %40, align 8, !tbaa !141
  %.not4143 = icmp eq i64 %43, 0
  br i1 %.not4143, label %._crit_edge, label %.lr.ph

.lr.ph:                                           ; preds = %35, %70
  %.03844 = phi i64 [ %71, %70 ], [ %43, %35 ]
  %44 = load ptr, ptr %37, align 8, !tbaa !142
  %45 = getelementptr %struct.string_list_item, ptr %44, i64 %.03844
  %46 = getelementptr i8, ptr %45, i64 -16
  %47 = load ptr, ptr %46, align 8, !tbaa !46
  %48 = load i32, ptr %17, align 4, !tbaa !136
  %.not42 = icmp eq i32 %48, 0
  br i1 %.not42, label %67, label %49

49:                                               ; preds = %.lr.ph
  store i64 0, ptr %18, align 8, !tbaa !32
  %50 = load ptr, ptr %19, align 8, !tbaa !42
  %.not9.i = icmp eq ptr %50, @strbuf_slopbuf
  br i1 %.not9.i, label %strbuf_setlen.exit, label %51

51:                                               ; preds = %49
  store i8 0, ptr %50, align 1, !tbaa !43
  br label %strbuf_setlen.exit

strbuf_setlen.exit:                               ; preds = %49, %51
  %52 = load i32, ptr %20, align 8, !tbaa !50
  %53 = load i32, ptr %21, align 4, !tbaa !51
  %54 = load i32, ptr %22, align 4, !tbaa !49
  call void @strbuf_add_wrapped_text(ptr noundef nonnull %2, ptr noundef %47, i32 noundef %52, i32 noundef %53, i32 noundef %54) #17
  %55 = load i64, ptr %2, align 8, !tbaa !143
  %.not.i.i.i = icmp eq i64 %55, 0
  br i1 %.not.i.i.i, label %strbuf_avail.exit.thread.i.i, label %strbuf_avail.exit.i.i

strbuf_avail.exit.i.i:                            ; preds = %strbuf_setlen.exit
  %56 = load i64, ptr %18, align 8, !tbaa !32
  %.neg.i.i = add i64 %56, 1
  %.not.i.i = icmp eq i64 %55, %.neg.i.i
  br i1 %.not.i.i, label %strbuf_avail.exit.thread.i.i, label %add_wrapped_shortlog_msg.exit

strbuf_avail.exit.thread.i.i:                     ; preds = %strbuf_avail.exit.i.i, %strbuf_setlen.exit
  call void @strbuf_grow(ptr noundef nonnull %2, i64 noundef 1) #17
  %.pre.i.i = load i64, ptr %18, align 8, !tbaa !32
  %.pre7.i.i = add i64 %.pre.i.i, 1
  br label %add_wrapped_shortlog_msg.exit

add_wrapped_shortlog_msg.exit:                    ; preds = %strbuf_avail.exit.i.i, %strbuf_avail.exit.thread.i.i
  %.pre-phi.i.i = phi i64 [ %.pre7.i.i, %strbuf_avail.exit.thread.i.i ], [ %.neg.i.i, %strbuf_avail.exit.i.i ]
  %57 = phi i64 [ %.pre.i.i, %strbuf_avail.exit.thread.i.i ], [ %56, %strbuf_avail.exit.i.i ]
  %58 = load ptr, ptr %19, align 8, !tbaa !42
  store i64 %.pre-phi.i.i, ptr %18, align 8, !tbaa !32
  %59 = getelementptr inbounds nuw i8, ptr %58, i64 %57
  store i8 10, ptr %59, align 1, !tbaa !43
  %60 = load ptr, ptr %19, align 8, !tbaa !42
  %61 = load i64, ptr %18, align 8, !tbaa !32
  %62 = getelementptr inbounds nuw i8, ptr %60, i64 %61
  store i8 0, ptr %62, align 1, !tbaa !43
  %63 = load ptr, ptr %19, align 8, !tbaa !42
  %64 = load i64, ptr %18, align 8, !tbaa !32
  %65 = load ptr, ptr %16, align 8, !tbaa !128
  %66 = call i64 @fwrite(ptr noundef %63, i64 noundef %64, i64 noundef 1, ptr noundef %65)
  br label %70

67:                                               ; preds = %.lr.ph
  %68 = load ptr, ptr %16, align 8, !tbaa !128
  %69 = call i32 (ptr, ptr, ...) @fprintf(ptr noundef %68, ptr noundef nonnull @.str.25, ptr noundef %47) #17
  br label %70

70:                                               ; preds = %67, %add_wrapped_shortlog_msg.exit
  %71 = add i64 %.03844, -1
  %.not41 = icmp eq i64 %71, 0
  br i1 %.not41, label %._crit_edge, label %.lr.ph, !llvm.loop !144

._crit_edge:                                      ; preds = %70, %35
  %72 = load ptr, ptr %16, align 8, !tbaa !128
  %73 = call i32 @putc(i32 noundef 10, ptr noundef %72)
  %74 = getelementptr inbounds nuw i8, ptr %37, i64 24
  %75 = load i8, ptr %74, align 8
  %76 = or i8 %75, 1
  store i8 %76, ptr %74, align 8
  call void @string_list_clear(ptr noundef nonnull %37, i32 noundef 0) #17
  call void @free(ptr noundef nonnull %37) #17
  br label %77

77:                                               ; preds = %._crit_edge, %27
  %78 = load ptr, ptr %0, align 8, !tbaa !138
  %79 = getelementptr inbounds nuw %struct.string_list_item, ptr %78, i64 %.045, i32 1
  store ptr null, ptr %79, align 8, !tbaa !140
  %80 = add nuw i64 %.045, 1
  %81 = load i64, ptr %13, align 8, !tbaa !139
  %82 = icmp ult i64 %80, %81
  br i1 %82, label %23, label %._crit_edge48, !llvm.loop !145

._crit_edge48:                                    ; preds = %77, %12
  call void @strbuf_release(ptr noundef nonnull %2) #17
  %83 = getelementptr inbounds nuw i8, ptr %0, i64 24
  %84 = load i8, ptr %83, align 8
  %85 = or i8 %84, 1
  store i8 %85, ptr %83, align 8
  call void @string_list_clear(ptr noundef nonnull %0, i32 noundef 1) #17
  %86 = getelementptr inbounds nuw i8, ptr %0, i64 184
  call void @clear_mailmap(ptr noundef nonnull %86) #17
  %87 = getelementptr inbounds nuw i8, ptr %0, i64 136
  call void @string_list_clear(ptr noundef nonnull %87, i32 noundef 0) #17
  %88 = getelementptr inbounds nuw i8, ptr %0, i64 96
  call void @string_list_clear(ptr noundef nonnull %88, i32 noundef 0) #17
  call void @llvm.lifetime.end.p0(i64 24, ptr nonnull %2) #17
  ret void
}